target datalayout = "e-m:e-p270:32:32-p271:32:32-p272:64:64-i64:64-i128:128-f80:128-n8:16:32:64-S128"
target triple = "x86_64-pc-linux-gnu"

%struct.ObjectAddress = type { i32, i32, i32 }
%struct.EventTriggerQueryState = type { ptr, %struct.slist_head, i8, i32, i32, i8, ptr, ptr, ptr }
%struct.slist_head = type { %struct.slist_node }
%struct.slist_node = type { ptr }
%struct.CollectedCommand = type { i32, i8, ptr, %union.anon, ptr }
%union.anon = type { %struct.anon.2 }
%struct.anon.2 = type { %struct.ObjectAddress, ptr, ptr }
%struct.anon = type { %struct.ObjectAddress, %struct.ObjectAddress }

@currentEventTriggerState = internal global ptr null, align 8
@creating_extension = external global i8, align 1
@CurrentMemoryContext = external global ptr, align 8

; Function Attrs: inlinehint nounwind uwtable
define internal ptr @MemoryContextSwitchTo(ptr noundef %0) #6 {
  %2 = alloca ptr, align 8
  %3 = alloca ptr, align 8
  store ptr %0, ptr %2, align 8
  call void @llvm.lifetime.start.p0(i64 8, ptr %3) #10
  %4 = load ptr, ptr @CurrentMemoryContext, align 8
  store ptr %4, ptr %3, align 8
  %5 = load ptr, ptr %2, align 8
  store ptr %5, ptr @CurrentMemoryContext, align 8
  %6 = load ptr, ptr %3, align 8
  call void @llvm.lifetime.end.p0(i64 8, ptr %3) #10
  ret ptr %6
}

; Function Attrs: nounwind uwtable
define dso_local void @EventTriggerCollectSimpleCommand(i64 %0, i32 %1, i64 %2, i32 %3, ptr noundef %4) #0 {
  %6 = alloca %struct.ObjectAddress, align 4
  %7 = alloca { i64, i32 }, align 4
  %8 = alloca %struct.ObjectAddress, align 4
  %9 = alloca { i64, i32 }, align 4
  %10 = alloca ptr, align 8
  %11 = alloca ptr, align 8
  %12 = alloca ptr, align 8
  %13 = alloca i32, align 4
  %14 = getelementptr inbounds nuw { i64, i32 }, ptr %7, i32 0, i32 0
  store i64 %0, ptr %14, align 4
  %15 = getelementptr inbounds nuw { i64, i32 }, ptr %7, i32 0, i32 1
  store i32 %1, ptr %15, align 4
  call void @llvm.memcpy.p0.p0.i64(ptr align 4 %6, ptr align 4 %7, i64 12, i1 false)
  %16 = getelementptr inbounds nuw { i64, i32 }, ptr %9, i32 0, i32 0
  store i64 %2, ptr %16, align 4
  %17 = getelementptr inbounds nuw { i64, i32 }, ptr %9, i32 0, i32 1
  store i32 %3, ptr %17, align 4
  call void @llvm.memcpy.p0.p0.i64(ptr align 4 %8, ptr align 4 %9, i64 12, i1 false)
  store ptr %4, ptr %10, align 8
  call void @llvm.lifetime.start.p0(i64 8, ptr %11) #10
  call void @llvm.lifetime.start.p0(i64 8, ptr %12) #10
  %18 = load ptr, ptr @currentEventTriggerState, align 8
  %19 = icmp ne ptr %18, null
  br i1 %19, label %20, label %25

20:                                               ; preds = %5
  %21 = load ptr, ptr @currentEventTriggerState, align 8
  %22 = getelementptr inbounds nuw %struct.EventTriggerQueryState, ptr %21, i32 0, i32 5
  %23 = load i8, ptr %22, align 4, !range !8, !noundef !9
  %24 = trunc i8 %23 to i1
  br i1 %24, label %25, label %26

25:                                               ; preds = %20, %5
  store i32 1, ptr %13, align 4
  br label %58

26:                                               ; preds = %20
  %27 = load ptr, ptr @currentEventTriggerState, align 8
  %28 = getelementptr inbounds nuw %struct.EventTriggerQueryState, ptr %27, i32 0, i32 0
  %29 = load ptr, ptr %28, align 8
  %30 = call ptr @MemoryContextSwitchTo(ptr noundef %29)
  store ptr %30, ptr %11, align 8
  %31 = call ptr @palloc(i64 noundef 56)
  store ptr %31, ptr %12, align 8
  %32 = load ptr, ptr %12, align 8
  %33 = getelementptr inbounds nuw %struct.CollectedCommand, ptr %32, i32 0, i32 0
  store i32 0, ptr %33, align 8
  %34 = load i8, ptr @creating_extension, align 1, !range !8, !noundef !9
  %35 = trunc i8 %34 to i1
  %36 = load ptr, ptr %12, align 8
  %37 = getelementptr inbounds nuw %struct.CollectedCommand, ptr %36, i32 0, i32 1
  %38 = zext i1 %35 to i8
  store i8 %38, ptr %37, align 4
  %39 = load ptr, ptr %12, align 8
  %40 = getelementptr inbounds nuw %struct.CollectedCommand, ptr %39, i32 0, i32 3
  %41 = getelementptr inbounds nuw %struct.anon, ptr %40, i32 0, i32 0
  call void @llvm.memcpy.p0.p0.i64(ptr align 8 %41, ptr align 4 %6, i64 12, i1 false)
  %42 = load ptr, ptr %12, align 8
  %43 = getelementptr inbounds nuw %struct.CollectedCommand, ptr %42, i32 0, i32 3
  %44 = getelementptr inbounds nuw %struct.anon, ptr %43, i32 0, i32 1
  call void @llvm.memcpy.p0.p0.i64(ptr align 4 %44, ptr align 4 %8, i64 12, i1 false)
  %45 = load ptr, ptr %10, align 8
  %46 = call ptr @copyObjectImpl(ptr noundef %45)
  %47 = load ptr, ptr %12, align 8
  %48 = getelementptr inbounds nuw %struct.CollectedCommand, ptr %47, i32 0, i32 2
  store ptr %46, ptr %48, align 8
  %49 = load ptr, ptr @currentEventTriggerState, align 8
  %50 = getelementptr inbounds nuw %struct.EventTriggerQueryState, ptr %49, i32 0, i32 7
  %51 = load ptr, ptr %50, align 8
  %52 = load ptr, ptr %12, align 8
  %53 = call ptr @lappend(ptr noundef %51, ptr noundef %52)
  %54 = load ptr, ptr @currentEventTriggerState, align 8
  %55 = getelementptr inbounds nuw %struct.EventTriggerQueryState, ptr %54, i32 0, i32 7
  store ptr %53, ptr %55, align 8
  %56 = load ptr, ptr %11, align 8
  %57 = call ptr @MemoryContextSwitchTo(ptr noundef %56)
  store i32 0, ptr %13, align 4
  br label %58

58:                                               ; preds = %26, %25
  call void @llvm.lifetime.end.p0(i64 8, ptr %12) #10
  call void @llvm.lifetime.end.p0(i64 8, ptr %11) #10
  %59 = load i32, ptr %13, align 4
  switch i32 %59, label %61 [
    i32 0, label %60
    i32 1, label %60
  ]

60:                                               ; preds = %58, %58
  ret void

61:                                               ; preds = %58
  unreachable
}