; Function Attrs: nounwind uwtable
define dso_local void @EventTriggerCollectSimpleCommand(i64 %0, i32 %1, i64 %2, i32 %3, ptr noundef %4) local_unnamed_addr #0 {
  %6 = load ptr, ptr @currentEventTriggerState, align 8
  %.not = icmp eq ptr %6, null
  br i1 %.not, label %27, label %7

7:                                                ; preds = %5
  %8 = getelementptr inbounds nuw i8, ptr %6, i64 28
  %9 = load i8, ptr %8, align 4, !range !9, !noundef !10
  %10 = trunc nuw i8 %9 to i1
  br i1 %10, label %27, label %11

11:                                               ; preds = %7
  %12 = load ptr, ptr %6, align 8
  %13 = load ptr, ptr @CurrentMemoryContext, align 8
  store ptr %12, ptr @CurrentMemoryContext, align 8
  %14 = tail call ptr @palloc(i64 noundef 56) #16
  store i32 0, ptr %14, align 8
  %15 = load i8, ptr @creating_extension, align 1, !range !9, !noundef !10
  %16 = getelementptr inbounds nuw i8, ptr %14, i64 4
  store i8 %15, ptr %16, align 4
  %17 = getelementptr inbounds nuw i8, ptr %14, i64 16
  store i64 %0, ptr %17, align 8
  %.sroa.213.0..sroa_idx = getelementptr inbounds nuw i8, ptr %14, i64 24
  store i32 %1, ptr %.sroa.213.0..sroa_idx, align 8
  %18 = getelementptr inbounds nuw i8, ptr %14, i64 28
  store i64 %2, ptr %18, align 4
  %.sroa.29.0..sroa_idx = getelementptr inbounds nuw i8, ptr %14, i64 36
  store i32 %3, ptr %.sroa.29.0..sroa_idx, align 4
  %19 = tail call ptr @copyObjectImpl(ptr noundef %4) #16
  %20 = getelementptr inbounds nuw i8, ptr %14, i64 8
  store ptr %19, ptr %20, align 8
  %21 = load ptr, ptr @currentEventTriggerState, align 8
  %22 = getelementptr inbounds nuw i8, ptr %21, i64 40
  %23 = load ptr, ptr %22, align 8
  %24 = tail call ptr @lappend(ptr noundef %23, ptr noundef nonnull %14) #16
  %25 = load ptr, ptr @currentEventTriggerState, align 8
  %26 = getelementptr inbounds nuw i8, ptr %25, i64 40
  store ptr %24, ptr %26, align 8
  store ptr %13, ptr @CurrentMemoryContext, align 8
  br label %27

27:                                               ; preds = %5, %7, %11
  ret void
}